target datalayout = "e-m:e-p270:32:32-p271:32:32-p272:64:64-i64:64-i128:128-f80:128-n8:16:32:64-S128"
target triple = "x86_64-pc-linux-gnu"

%struct._object = type { %union.anon, ptr }
%union.anon = type { i64 }
%struct.PyVarObject = type { %struct._object, i64 }
%struct._typeobject = type { %struct.PyVarObject, ptr, i64, i64, ptr, i64, ptr, ptr, ptr, ptr, ptr, ptr, ptr, ptr, ptr, ptr, ptr, ptr, ptr, i64, ptr, ptr, ptr, ptr, i64, ptr, ptr, ptr, ptr, ptr, ptr, ptr, ptr, ptr, i64, ptr, ptr, ptr, ptr, ptr, ptr, ptr, ptr, ptr, ptr, ptr, i32, ptr, ptr, i8, i16 }
%struct.Py_buffer = type { ptr, ptr, i64, i64, i32, i32, ptr, ptr, ptr, ptr, ptr }

@.str.18 = private unnamed_addr constant [17 x i8] c"utf_16_ex_decode\00", align 1
@_Py_NoneStruct = external global %struct._object, align 8
@PyExc_ValueError = external global ptr, align 8
@.str.44 = private unnamed_addr constant [24 x i8] c"embedded null character\00", align 1
@.str.52 = private unnamed_addr constant [11 x i8] c"argument 2\00", align 1
@.str.53 = private unnamed_addr constant [12 x i8] c"str or None\00", align 1
@.str.56 = private unnamed_addr constant [4 x i8] c"Nni\00", align 1

; Function Attrs: nounwind uwtable
define internal ptr @_codecs_utf_16_ex_decode_impl(ptr noundef %0, ptr noundef %1, ptr noundef %2, i32 noundef %3, i32 noundef %4) #0 {
  %6 = alloca ptr, align 8
  %7 = alloca ptr, align 8
  %8 = alloca ptr, align 8
  %9 = alloca ptr, align 8
  %10 = alloca i32, align 4
  %11 = alloca i32, align 4
  %12 = alloca i64, align 8
  %13 = alloca ptr, align 8
  %14 = alloca i32, align 4
  store ptr %0, ptr %7, align 8, !tbaa !4
  store ptr %1, ptr %8, align 8, !tbaa !31
  store ptr %2, ptr %9, align 8, !tbaa !9
  store i32 %3, ptr %10, align 4, !tbaa !19
  store i32 %4, ptr %11, align 4, !tbaa !19
  call void @llvm.lifetime.start.p0(i64 8, ptr %12) #6
  %15 = load ptr, ptr %8, align 8, !tbaa !31
  %16 = getelementptr inbounds nuw %struct.Py_buffer, ptr %15, i32 0, i32 2
  %17 = load i64, ptr %16, align 8, !tbaa !37
  store i64 %17, ptr %12, align 8, !tbaa !11
  call void @llvm.lifetime.start.p0(i64 8, ptr %13) #6
  %18 = load ptr, ptr %8, align 8, !tbaa !31
  %19 = getelementptr inbounds nuw %struct.Py_buffer, ptr %18, i32 0, i32 0
  %20 = load ptr, ptr %19, align 8, !tbaa !36
  %21 = load ptr, ptr %8, align 8, !tbaa !31
  %22 = getelementptr inbounds nuw %struct.Py_buffer, ptr %21, i32 0, i32 2
  %23 = load i64, ptr %22, align 8, !tbaa !37
  %24 = load ptr, ptr %9, align 8, !tbaa !9
  %25 = load i32, ptr %11, align 4, !tbaa !19
  %26 = icmp ne i32 %25, 0
  br i1 %26, label %27, label %28

27:                                               ; preds = %5
  br label %29

28:                                               ; preds = %5
  br label %29

29:                                               ; preds = %28, %27
  %30 = phi ptr [ null, %27 ], [ %12, %28 ]
  %31 = call ptr @PyUnicode_DecodeUTF16Stateful(ptr noundef %20, i64 noundef %23, ptr noundef %24, ptr noundef %10, ptr noundef %30)
  store ptr %31, ptr %13, align 8, !tbaa !4
  %32 = load ptr, ptr %13, align 8, !tbaa !4
  %33 = icmp eq ptr %32, null
  br i1 %33, label %34, label %35

34:                                               ; preds = %29
  store ptr null, ptr %6, align 8
  store i32 1, ptr %14, align 4
  br label %40

35:                                               ; preds = %29
  %36 = load ptr, ptr %13, align 8, !tbaa !4
  %37 = load i64, ptr %12, align 8, !tbaa !11
  %38 = load i32, ptr %10, align 4, !tbaa !19
  %39 = call ptr (ptr, ...) @Py_BuildValue(ptr noundef @.str.56, ptr noundef %36, i64 noundef %37, i32 noundef %38)
  store ptr %39, ptr %6, align 8
  store i32 1, ptr %14, align 4
  br label %40

40:                                               ; preds = %35, %34
  call void @llvm.lifetime.end.p0(i64 8, ptr %13) #6
  call void @llvm.lifetime.end.p0(i64 8, ptr %12) #6
  %41 = load ptr, ptr %6, align 8
  ret ptr %41
}

; Function Attrs: inlinehint nounwind uwtable
define internal i32 @PyType_HasFeature(ptr noundef %0, i64 noundef %1) #3 {
  %3 = alloca ptr, align 8
  %4 = alloca i64, align 8
  %5 = alloca i64, align 8
  store ptr %0, ptr %3, align 8, !tbaa !20
  store i64 %1, ptr %4, align 8, !tbaa !11
  call void @llvm.lifetime.start.p0(i64 8, ptr %5) #6
  %6 = load ptr, ptr %3, align 8, !tbaa !20
  %7 = getelementptr inbounds nuw %struct._typeobject, ptr %6, i32 0, i32 19
  %8 = load i64, ptr %7, align 8, !tbaa !22
  store i64 %8, ptr %5, align 8, !tbaa !11
  %9 = load i64, ptr %5, align 8, !tbaa !11
  %10 = load i64, ptr %4, align 8, !tbaa !11
  %11 = and i64 %9, %10
  %12 = icmp ne i64 %11, 0
  %13 = zext i1 %12 to i32
  call void @llvm.lifetime.end.p0(i64 8, ptr %5) #6
  ret i32 %13
}

; Function Attrs: inlinehint nounwind uwtable
define internal ptr @_Py_TYPE(ptr noundef %0) #3 {
  %2 = alloca ptr, align 8
  store ptr %0, ptr %2, align 8, !tbaa !4
  %3 = load ptr, ptr %2, align 8, !tbaa !4
  %4 = getelementptr inbounds nuw %struct._object, ptr %3, i32 0, i32 1
  %5 = load ptr, ptr %4, align 8, !tbaa !30
  ret ptr %5
}

; Function Attrs: nounwind uwtable
define internal ptr @_codecs_utf_16_ex_decode(ptr noundef %0, ptr noundef %1, i64 noundef %2) #0 {
  %4 = alloca ptr, align 8
  %5 = alloca ptr, align 8
  %6 = alloca ptr, align 8
  %7 = alloca i64, align 8
  %8 = alloca ptr, align 8
  %9 = alloca %struct.Py_buffer, align 8
  %10 = alloca ptr, align 8
  %11 = alloca i32, align 4
  %12 = alloca i32, align 4
  %13 = alloca i64, align 8
  %14 = alloca i32, align 4
  store ptr %0, ptr %5, align 8, !tbaa !4
  store ptr %1, ptr %6, align 8, !tbaa !13
  store i64 %2, ptr %7, align 8, !tbaa !11
  call void @llvm.lifetime.start.p0(i64 8, ptr %8) #6
  store ptr null, ptr %8, align 8, !tbaa !4
  call void @llvm.lifetime.start.p0(i64 80, ptr %9) #6
  call void @llvm.memset.p0.i64(ptr align 8 %9, i8 0, i64 80, i1 false)
  call void @llvm.lifetime.start.p0(i64 8, ptr %10) #6
  store ptr null, ptr %10, align 8, !tbaa !9
  call void @llvm.lifetime.start.p0(i64 4, ptr %11) #6
  store i32 0, ptr %11, align 4, !tbaa !19
  call void @llvm.lifetime.start.p0(i64 4, ptr %12) #6
  store i32 0, ptr %12, align 4, !tbaa !19
  %15 = load i64, ptr %7, align 8, !tbaa !11
  %16 = icmp sle i64 1, %15
  br i1 %16, label %17, label %20

17:                                               ; preds = %3
  %18 = load i64, ptr %7, align 8, !tbaa !11
  %19 = icmp sle i64 %18, 4
  br i1 %19, label %25, label %20

20:                                               ; preds = %17, %3
  %21 = load i64, ptr %7, align 8, !tbaa !11
  %22 = call i32 @_PyArg_CheckPositional(ptr noundef @.str.18, i64 noundef %21, i64 noundef 1, i64 noundef 4)
  %23 = icmp ne i32 %22, 0
  br i1 %23, label %25, label %24

24:                                               ; preds = %20
  br label %107

25:                                               ; preds = %20, %17
  %26 = load ptr, ptr %6, align 8, !tbaa !13
  %27 = getelementptr ptr, ptr %26, i64 0
  %28 = load ptr, ptr %27, align 8, !tbaa !4
  %29 = call i32 @PyObject_GetBuffer(ptr noundef %28, ptr noundef %9, i32 noundef 0)
  %30 = icmp ne i32 %29, 0
  br i1 %30, label %31, label %32

31:                                               ; preds = %25
  br label %107

32:                                               ; preds = %25
  %33 = load i64, ptr %7, align 8, !tbaa !11
  %34 = icmp slt i64 %33, 2
  br i1 %34, label %35, label %36

35:                                               ; preds = %32
  br label %101

36:                                               ; preds = %32
  %37 = load ptr, ptr %6, align 8, !tbaa !13
  %38 = getelementptr ptr, ptr %37, i64 1
  %39 = load ptr, ptr %38, align 8, !tbaa !4
  %40 = icmp eq ptr %39, @_Py_NoneStruct
  br i1 %40, label %41, label %42

41:                                               ; preds = %36
  store ptr null, ptr %10, align 8, !tbaa !9
  br label %73

42:                                               ; preds = %36
  %43 = load ptr, ptr %6, align 8, !tbaa !13
  %44 = getelementptr ptr, ptr %43, i64 1
  %45 = load ptr, ptr %44, align 8, !tbaa !4
  %46 = call ptr @_Py_TYPE(ptr noundef %45)
  %47 = call i32 @PyType_HasFeature(ptr noundef %46, i64 noundef 268435456)
  %48 = icmp ne i32 %47, 0
  br i1 %48, label %49, label %68

49:                                               ; preds = %42
  call void @llvm.lifetime.start.p0(i64 8, ptr %13) #6
  %50 = load ptr, ptr %6, align 8, !tbaa !13
  %51 = getelementptr ptr, ptr %50, i64 1
  %52 = load ptr, ptr %51, align 8, !tbaa !4
  %53 = call ptr @PyUnicode_AsUTF8AndSize(ptr noundef %52, ptr noundef %13)
  store ptr %53, ptr %10, align 8, !tbaa !9
  %54 = load ptr, ptr %10, align 8, !tbaa !9
  %55 = icmp eq ptr %54, null
  br i1 %55, label %56, label %57

56:                                               ; preds = %49
  store i32 2, ptr %14, align 4
  br label %65

57:                                               ; preds = %49
  %58 = load ptr, ptr %10, align 8, !tbaa !9
  %59 = call i64 @strlen(ptr noundef %58) #7
  %60 = load i64, ptr %13, align 8, !tbaa !11
  %61 = icmp ne i64 %59, %60
  br i1 %61, label %62, label %64

62:                                               ; preds = %57
  %63 = load ptr, ptr @PyExc_ValueError, align 8, !tbaa !4
  call void @PyErr_SetString(ptr noundef %63, ptr noundef @.str.44)
  store i32 2, ptr %14, align 4
  br label %65

64:                                               ; preds = %57
  store i32 0, ptr %14, align 4
  br label %65

65:                                               ; preds = %62, %56, %64
  call void @llvm.lifetime.end.p0(i64 8, ptr %13) #6
  %66 = load i32, ptr %14, align 4
  switch i32 %66, label %114 [
    i32 0, label %67
    i32 2, label %107
  ]

67:                                               ; preds = %65
  br label %72

68:                                               ; preds = %42
  %69 = load ptr, ptr %6, align 8, !tbaa !13
  %70 = getelementptr ptr, ptr %69, i64 1
  %71 = load ptr, ptr %70, align 8, !tbaa !4
  call void @_PyArg_BadArgument(ptr noundef @.str.18, ptr noundef @.str.52, ptr noundef @.str.53, ptr noundef %71)
  br label %107

72:                                               ; preds = %67
  br label %73

73:                                               ; preds = %72, %41
  %74 = load i64, ptr %7, align 8, !tbaa !11
  %75 = icmp slt i64 %74, 3
  br i1 %75, label %76, label %77

76:                                               ; preds = %73
  br label %101

77:                                               ; preds = %73
  %78 = load ptr, ptr %6, align 8, !tbaa !13
  %79 = getelementptr ptr, ptr %78, i64 2
  %80 = load ptr, ptr %79, align 8, !tbaa !4
  %81 = call i32 @PyLong_AsInt(ptr noundef %80)
  store i32 %81, ptr %11, align 4, !tbaa !19
  %82 = load i32, ptr %11, align 4, !tbaa !19
  %83 = icmp eq i32 %82, -1
  br i1 %83, label %84, label %88

84:                                               ; preds = %77
  %85 = call ptr @PyErr_Occurred()
  %86 = icmp ne ptr %85, null
  br i1 %86, label %87, label %88

87:                                               ; preds = %84
  br label %107

88:                                               ; preds = %84, %77
  %89 = load i64, ptr %7, align 8, !tbaa !11
  %90 = icmp slt i64 %89, 4
  br i1 %90, label %91, label %92

91:                                               ; preds = %88
  br label %101

92:                                               ; preds = %88
  %93 = load ptr, ptr %6, align 8, !tbaa !13
  %94 = getelementptr ptr, ptr %93, i64 3
  %95 = load ptr, ptr %94, align 8, !tbaa !4
  %96 = call i32 @PyObject_IsTrue(ptr noundef %95)
  store i32 %96, ptr %12, align 4, !tbaa !19
  %97 = load i32, ptr %12, align 4, !tbaa !19
  %98 = icmp slt i32 %97, 0
  br i1 %98, label %99, label %100

99:                                               ; preds = %92
  br label %107

100:                                              ; preds = %92
  br label %101

101:                                              ; preds = %100, %91, %76, %35
  %102 = load ptr, ptr %5, align 8, !tbaa !4
  %103 = load ptr, ptr %10, align 8, !tbaa !9
  %104 = load i32, ptr %11, align 4, !tbaa !19
  %105 = load i32, ptr %12, align 4, !tbaa !19
  %106 = call ptr @_codecs_utf_16_ex_decode_impl(ptr noundef %102, ptr noundef %9, ptr noundef %103, i32 noundef %104, i32 noundef %105)
  store ptr %106, ptr %8, align 8, !tbaa !4
  br label %107

107:                                              ; preds = %101, %65, %99, %87, %68, %31, %24
  %108 = getelementptr inbounds nuw %struct.Py_buffer, ptr %9, i32 0, i32 1
  %109 = load ptr, ptr %108, align 8, !tbaa !15
  %110 = icmp ne ptr %109, null
  br i1 %110, label %111, label %112

111:                                              ; preds = %107
  call void @PyBuffer_Release(ptr noundef %9)
  br label %112

112:                                              ; preds = %111, %107
  %113 = load ptr, ptr %8, align 8, !tbaa !4
  store ptr %113, ptr %4, align 8
  store i32 1, ptr %14, align 4
  br label %114

114:                                              ; preds = %112, %65
  call void @llvm.lifetime.end.p0(i64 4, ptr %12) #6
  call void @llvm.lifetime.end.p0(i64 4, ptr %11) #6
  call void @llvm.lifetime.end.p0(i64 8, ptr %10) #6
  call void @llvm.lifetime.end.p0(i64 80, ptr %9) #6
  call void @llvm.lifetime.end.p0(i64 8, ptr %8) #6
  %115 = load ptr, ptr %4, align 8
  ret ptr %115
}