; Function Attrs: nounwind uwtable
define internal ptr @_codecs_utf_16_ex_decode(ptr readnone captures(none) %0, ptr noundef readonly captures(none) %1, i64 noundef %2) #0 {
  %4 = alloca i32, align 4
  %5 = alloca i64, align 8
  %6 = alloca %struct.Py_buffer, align 8
  %7 = alloca i64, align 8
  call void @llvm.lifetime.start.p0(i64 80, ptr nonnull %6) #5
  call void @llvm.memset.p0.i64(ptr noundef nonnull align 8 dereferenceable(80) %6, i8 0, i64 80, i1 false)
  %8 = add i64 %2, -1
  %or.cond = icmp ult i64 %8, 4
  br i1 %or.cond, label %11, label %9

9:                                                ; preds = %3
  %10 = tail call i32 @_PyArg_CheckPositional(ptr noundef nonnull @.str.18, i64 noundef %2, i64 noundef 1, i64 noundef 4) #5
  %.not = icmp eq i32 %10, 0
  br i1 %.not, label %61, label %11

11:                                               ; preds = %3, %9
  %12 = load ptr, ptr %1, align 8, !tbaa !22
  %13 = call i32 @PyObject_GetBuffer(ptr noundef %12, ptr noundef nonnull %6, i32 noundef 0) #5
  %.not33 = icmp eq i32 %13, 0
  br i1 %.not33, label %14, label %61

14:                                               ; preds = %11
  %15 = icmp slt i64 %2, 2
  br i1 %15, label %.thread45, label %16

16:                                               ; preds = %14
  %17 = getelementptr i8, ptr %1, i64 8
  %18 = load ptr, ptr %17, align 8, !tbaa !22
  %19 = icmp eq ptr %18, @_Py_NoneStruct
  br i1 %19, label %34, label %20

20:                                               ; preds = %16
  %21 = getelementptr i8, ptr %18, i64 8
  %.val = load ptr, ptr %21, align 8, !tbaa !4
  %22 = getelementptr i8, ptr %.val, i64 168
  %.val39 = load i64, ptr %22, align 8, !tbaa !10
  %23 = and i64 %.val39, 268435456
  %.not34 = icmp eq i64 %23, 0
  br i1 %.not34, label %33, label %24

24:                                               ; preds = %20
  call void @llvm.lifetime.start.p0(i64 8, ptr nonnull %7) #5
  %25 = call ptr @PyUnicode_AsUTF8AndSize(ptr noundef %18, ptr noundef nonnull %7) #5
  %26 = icmp eq ptr %25, null
  br i1 %26, label %.thread, label %27

27:                                               ; preds = %24
  %28 = call i64 @strlen(ptr noundef nonnull dereferenceable(1) %25) #6
  %29 = load i64, ptr %7, align 8, !tbaa !21
  %.not35 = icmp eq i64 %28, %29
  br i1 %.not35, label %32, label %30

30:                                               ; preds = %27
  %31 = load ptr, ptr @PyExc_ValueError, align 8, !tbaa !22
  call void @PyErr_SetString(ptr noundef %31, ptr noundef nonnull @.str.44) #5
  br label %.thread

.thread:                                          ; preds = %30, %24
  call void @llvm.lifetime.end.p0(i64 8, ptr nonnull %7) #5
  br label %61

32:                                               ; preds = %27
  call void @llvm.lifetime.end.p0(i64 8, ptr nonnull %7) #5
  br label %34

33:                                               ; preds = %20
  call void @_PyArg_BadArgument(ptr noundef nonnull @.str.18, ptr noundef nonnull @.str.52, ptr noundef nonnull @.str.53, ptr noundef %18) #5
  br label %61

34:                                               ; preds = %32, %16
  %.1 = phi ptr [ %25, %32 ], [ null, %16 ]
  %35 = icmp eq i64 %2, 2
  br i1 %35, label %.thread45, label %36

36:                                               ; preds = %34
  %37 = getelementptr i8, ptr %1, i64 16
  %38 = load ptr, ptr %37, align 8, !tbaa !22
  %39 = call i32 @PyLong_AsInt(ptr noundef %38) #5
  %40 = icmp eq i32 %39, -1
  br i1 %40, label %41, label %43

41:                                               ; preds = %36
  %42 = call ptr @PyErr_Occurred() #5
  %.not36 = icmp eq ptr %42, null
  br i1 %.not36, label %43, label %61

43:                                               ; preds = %41, %36
  %44 = icmp samesign ult i64 %2, 4
  br i1 %44, label %.thread45, label %45

45:                                               ; preds = %43
  %46 = getelementptr i8, ptr %1, i64 24
  %47 = load ptr, ptr %46, align 8, !tbaa !22
  %48 = call i32 @PyObject_IsTrue(ptr noundef %47) #5
  %.fr = freeze i32 %48
  %49 = icmp slt i32 %.fr, 0
  br i1 %49, label %61, label %51

.thread45:                                        ; preds = %14, %34, %43
  %.026.ph = phi ptr [ %.1, %43 ], [ %.1, %34 ], [ null, %14 ]
  %.025.ph = phi i32 [ %39, %43 ], [ 0, %34 ], [ 0, %14 ]
  %.val4049 = load ptr, ptr %6, align 8, !tbaa !28
  %50 = getelementptr inbounds nuw i8, ptr %6, i64 16
  %.val4150 = load i64, ptr %50, align 8, !tbaa !31
  call void @llvm.lifetime.start.p0(i64 4, ptr nonnull %4)
  store i32 %.025.ph, ptr %4, align 4, !tbaa !36
  call void @llvm.lifetime.start.p0(i64 8, ptr nonnull %5) #5
  store i64 %.val4150, ptr %5, align 8, !tbaa !21
  br label %53

51:                                               ; preds = %45
  %.val40 = load ptr, ptr %6, align 8, !tbaa !28
  %52 = getelementptr inbounds nuw i8, ptr %6, i64 16
  %.val41 = load i64, ptr %52, align 8, !tbaa !31
  call void @llvm.lifetime.start.p0(i64 4, ptr nonnull %4)
  store i32 %39, ptr %4, align 4, !tbaa !36
  call void @llvm.lifetime.start.p0(i64 8, ptr nonnull %5) #5
  store i64 %.val41, ptr %5, align 8, !tbaa !21
  %.not.i = icmp eq i32 %.fr, 0
  %spec.select = select i1 %.not.i, ptr %5, ptr null
  br label %53

53:                                               ; preds = %51, %.thread45
  %.val4157 = phi i64 [ %.val4150, %.thread45 ], [ %.val41, %51 ]
  %.val4055 = phi ptr [ %.val4049, %.thread45 ], [ %.val40, %51 ]
  %.02653 = phi ptr [ %.026.ph, %.thread45 ], [ %.1, %51 ]
  %54 = phi ptr [ %5, %.thread45 ], [ %spec.select, %51 ]
  %55 = call ptr @PyUnicode_DecodeUTF16Stateful(ptr noundef %.val4055, i64 noundef %.val4157, ptr noundef %.02653, ptr noundef nonnull %4, ptr noundef %54) #5
  %56 = icmp eq ptr %55, null
  br i1 %56, label %_codecs_utf_16_ex_decode_impl.exit, label %57

57:                                               ; preds = %53
  %58 = load i64, ptr %5, align 8, !tbaa !21
  %59 = load i32, ptr %4, align 4, !tbaa !36
  %60 = call ptr (ptr, ...) @Py_BuildValue(ptr noundef nonnull @.str.56, ptr noundef nonnull %55, i64 noundef %58, i32 noundef %59) #5
  br label %_codecs_utf_16_ex_decode_impl.exit

_codecs_utf_16_ex_decode_impl.exit:               ; preds = %53, %57
  %.0.i = phi ptr [ %60, %57 ], [ null, %53 ]
  call void @llvm.lifetime.end.p0(i64 8, ptr nonnull %5) #5
  call void @llvm.lifetime.end.p0(i64 4, ptr nonnull %4)
  br label %61

61:                                               ; preds = %.thread, %45, %41, %11, %9, %_codecs_utf_16_ex_decode_impl.exit, %33
  %.027 = phi ptr [ null, %11 ], [ %.0.i, %_codecs_utf_16_ex_decode_impl.exit ], [ null, %41 ], [ null, %45 ], [ null, %33 ], [ null, %9 ], [ null, %.thread ]
  %62 = getelementptr inbounds nuw i8, ptr %6, i64 8
  %63 = load ptr, ptr %62, align 8, !tbaa !32
  %.not37 = icmp eq ptr %63, null
  br i1 %.not37, label %65, label %64

64:                                               ; preds = %61
  call void @PyBuffer_Release(ptr noundef nonnull %6) #5
  br label %65

65:                                               ; preds = %61, %64
  call void @llvm.lifetime.end.p0(i64 80, ptr nonnull %6) #5
  ret ptr %.027
}